target datalayout = "e-m:e-p270:32:32-p271:32:32-p272:64:64-i64:64-i128:128-f80:128-n8:16:32:64-S128"
target triple = "x86_64-unknown-linux-gnu"

%struct.VMStateDescription = type { ptr, i8, i8, i32, i32, i32, ptr, ptr, ptr, ptr, ptr, ptr, ptr, ptr }
%struct.timeval = type { i64, i64 }
%struct.PCIDeviceClass = type { %struct.DeviceClass, ptr, ptr, ptr, ptr, i16, i16, i8, i16, i16, i16, ptr }
%struct.DeviceClass = type { %struct.ObjectClass, [1 x i64], ptr, ptr, ptr, i8, i8, ptr, ptr, ptr, ptr, ptr }
%struct.ObjectClass = type { ptr, ptr, [4 x ptr], [4 x ptr], ptr, ptr }

@.str.3 = private unnamed_addr constant [11 x i8] c"pci-device\00", align 1
@.str.4 = private unnamed_addr constant [106 x i8] c"/home/dtcxzyw/WorkSpace/Projects/compilers/llvm-opt-benchmark/bench/qemu/qemu/include/hw/pci/pci_device.h\00", align 1
@trace_events_enabled_count = external global i32, align 4
@message_with_timestamp = external global i8, align 1
@qemu_loglevel = external global i32, align 4
@erst_vmstate = internal constant %struct.VMStateDescription { ptr @.str.7, i8 0, i8 0, i32 1, i32 1, i32 0, ptr null, ptr @erst_post_load, ptr null, ptr null, ptr null, ptr null, ptr @.compoundliteral.43, ptr null }, align 8
@.str.9 = private unnamed_addr constant [52 x i8] c"ACPI Error Record Serialization Table (ERST) device\00", align 1
@.str.10 = private unnamed_addr constant [7 x i8] c"device\00", align 1
@.str.11 = private unnamed_addr constant [101 x i8] c"/home/dtcxzyw/WorkSpace/Projects/compilers/llvm-opt-benchmark/bench/qemu/qemu/include/hw/qdev-core.h\00", align 1
@__func__.DEVICE_CLASS = private unnamed_addr constant [13 x i8] c"DEVICE_CLASS\00", align 1
@__func__.PCI_DEVICE_CLASS = private unnamed_addr constant [17 x i8] c"PCI_DEVICE_CLASS\00", align 1
@_TRACE_ACPI_ERST_CLASS_INIT_IN_DSTATE = external global i16, align 2
@.str.12 = private unnamed_addr constant [39 x i8] c"%d@%zu.%06zu:acpi_erst_class_init_in \0A\00", align 1
@.str.13 = private unnamed_addr constant [26 x i8] c"acpi_erst_class_init_in \0A\00", align 1
@_TRACE_ACPI_ERST_CLASS_INIT_OUT_DSTATE = external global i16, align 2
@.str.49 = private unnamed_addr constant [40 x i8] c"%d@%zu.%06zu:acpi_erst_class_init_out \0A\00", align 1
@.str.50 = private unnamed_addr constant [27 x i8] c"acpi_erst_class_init_out \0A\00", align 1

; Function Attrs: nounwind sspstrong uwtable
define internal zeroext i1 @qemu_loglevel_mask(i32 noundef %mask) #0 {
entry:
  %mask.addr = alloca i32, align 4
  store i32 %mask, ptr %mask.addr, align 4
  %0 = load i32, ptr @qemu_loglevel, align 4
  %1 = load i32, ptr %mask.addr, align 4
  %and = and i32 %0, %1
  %cmp = icmp ne i32 %and, 0
  ret i1 %cmp
}

; Function Attrs: nounwind sspstrong uwtable
define internal void @_nocheck__trace_acpi_erst_class_init_out() #0 {
entry:
  %_now = alloca %struct.timeval, align 8
  %0 = load i32, ptr @trace_events_enabled_count, align 4
  %tobool = icmp ne i32 %0, 0
  %lnot = xor i1 %tobool, true
  %lnot1 = xor i1 %lnot, true
  %lnot.ext = zext i1 %lnot1 to i32
  %conv = sext i32 %lnot.ext to i64
  %tobool2 = icmp ne i64 %conv, 0
  br i1 %tobool2, label %land.lhs.true, label %if.end11

land.lhs.true:                                    ; preds = %entry
  %1 = load i16, ptr @_TRACE_ACPI_ERST_CLASS_INIT_OUT_DSTATE, align 2
  %conv3 = zext i16 %1 to i32
  %tobool4 = icmp ne i32 %conv3, 0
  br i1 %tobool4, label %land.lhs.true5, label %if.end11

land.lhs.true5:                                   ; preds = %land.lhs.true
  %call = call zeroext i1 @qemu_loglevel_mask(i32 noundef 32768)
  br i1 %call, label %if.then, label %if.end11

if.then:                                          ; preds = %land.lhs.true5
  %2 = load i8, ptr @message_with_timestamp, align 1
  %tobool7 = trunc i8 %2 to i1
  br i1 %tobool7, label %if.then8, label %if.else

if.then8:                                         ; preds = %if.then
  %call9 = call i32 @gettimeofday(ptr noundef %_now, ptr noundef null) #8
  %call10 = call i32 @qemu_get_thread_id()
  %tv_sec = getelementptr inbounds %struct.timeval, ptr %_now, i32 0, i32 0
  %3 = load i64, ptr %tv_sec, align 8
  %tv_usec = getelementptr inbounds %struct.timeval, ptr %_now, i32 0, i32 1
  %4 = load i64, ptr %tv_usec, align 8
  call void (ptr, ...) @qemu_log(ptr noundef @.str.49, i32 noundef %call10, i64 noundef %3, i64 noundef %4)
  br label %if.end

if.else:                                          ; preds = %if.then
  call void (ptr, ...) @qemu_log(ptr noundef @.str.50)
  br label %if.end

if.end:                                           ; preds = %if.else, %if.then8
  br label %if.end11

if.end11:                                         ; preds = %if.end, %land.lhs.true5, %land.lhs.true, %entry
  ret void
}

; Function Attrs: nounwind sspstrong uwtable
define internal void @_nocheck__trace_acpi_erst_class_init_in() #0 {
entry:
  %_now = alloca %struct.timeval, align 8
  %0 = load i32, ptr @trace_events_enabled_count, align 4
  %tobool = icmp ne i32 %0, 0
  %lnot = xor i1 %tobool, true
  %lnot1 = xor i1 %lnot, true
  %lnot.ext = zext i1 %lnot1 to i32
  %conv = sext i32 %lnot.ext to i64
  %tobool2 = icmp ne i64 %conv, 0
  br i1 %tobool2, label %land.lhs.true, label %if.end11

land.lhs.true:                                    ; preds = %entry
  %1 = load i16, ptr @_TRACE_ACPI_ERST_CLASS_INIT_IN_DSTATE, align 2
  %conv3 = zext i16 %1 to i32
  %tobool4 = icmp ne i32 %conv3, 0
  br i1 %tobool4, label %land.lhs.true5, label %if.end11

land.lhs.true5:                                   ; preds = %land.lhs.true
  %call = call zeroext i1 @qemu_loglevel_mask(i32 noundef 32768)
  br i1 %call, label %if.then, label %if.end11

if.then:                                          ; preds = %land.lhs.true5
  %2 = load i8, ptr @message_with_timestamp, align 1
  %tobool7 = trunc i8 %2 to i1
  br i1 %tobool7, label %if.then8, label %if.else

if.then8:                                         ; preds = %if.then
  %call9 = call i32 @gettimeofday(ptr noundef %_now, ptr noundef null) #8
  %call10 = call i32 @qemu_get_thread_id()
  %tv_sec = getelementptr inbounds %struct.timeval, ptr %_now, i32 0, i32 0
  %3 = load i64, ptr %tv_sec, align 8
  %tv_usec = getelementptr inbounds %struct.timeval, ptr %_now, i32 0, i32 1
  %4 = load i64, ptr %tv_usec, align 8
  call void (ptr, ...) @qemu_log(ptr noundef @.str.12, i32 noundef %call10, i64 noundef %3, i64 noundef %4)
  br label %if.end

if.else:                                          ; preds = %if.then
  call void (ptr, ...) @qemu_log(ptr noundef @.str.13)
  br label %if.end

if.end:                                           ; preds = %if.else, %if.then8
  br label %if.end11

if.end11:                                         ; preds = %if.end, %land.lhs.true5, %land.lhs.true, %entry
  ret void
}

; Function Attrs: nounwind sspstrong uwtable
define internal void @trace_acpi_erst_class_init_out() #0 {
entry:
  call void @_nocheck__trace_acpi_erst_class_init_out()
  ret void
}

; Function Attrs: nounwind sspstrong uwtable
define internal void @set_bit(i64 noundef %nr, ptr noundef %addr) #0 {
entry:
  %nr.addr = alloca i64, align 8
  %addr.addr = alloca ptr, align 8
  %mask = alloca i64, align 8
  %p = alloca ptr, align 8
  store i64 %nr, ptr %nr.addr, align 8
  store ptr %addr, ptr %addr.addr, align 8
  %0 = load i64, ptr %nr.addr, align 8
  %rem = urem i64 %0, 64
  %shl = shl i64 1, %rem
  store i64 %shl, ptr %mask, align 8
  %1 = load ptr, ptr %addr.addr, align 8
  %2 = load i64, ptr %nr.addr, align 8
  %div = udiv i64 %2, 64
  %add.ptr = getelementptr i64, ptr %1, i64 %div
  store ptr %add.ptr, ptr %p, align 8
  %3 = load i64, ptr %mask, align 8
  %4 = load ptr, ptr %p, align 8
  %5 = load i64, ptr %4, align 8
  %or = or i64 %5, %3
  store i64 %or, ptr %4, align 8
  ret void
}

; Function Attrs: nounwind sspstrong uwtable
define internal void @trace_acpi_erst_class_init_in() #0 {
entry:
  call void @_nocheck__trace_acpi_erst_class_init_in()
  ret void
}

; Function Attrs: nounwind sspstrong uwtable
define internal ptr @PCI_DEVICE_CLASS(ptr noundef %klass) #0 {
entry:
  %klass.addr = alloca ptr, align 8
  store ptr %klass, ptr %klass.addr, align 8
  %0 = load ptr, ptr %klass.addr, align 8
  %call = call ptr @object_class_dynamic_cast_assert(ptr noundef %0, ptr noundef @.str.3, ptr noundef @.str.4, i32 noundef 10, ptr noundef @__func__.PCI_DEVICE_CLASS)
  ret ptr %call
}

; Function Attrs: nounwind sspstrong uwtable
define internal ptr @DEVICE_CLASS(ptr noundef %klass) #0 {
entry:
  %klass.addr = alloca ptr, align 8
  store ptr %klass, ptr %klass.addr, align 8
  %0 = load ptr, ptr %klass.addr, align 8
  %call = call ptr @object_class_dynamic_cast_assert(ptr noundef %0, ptr noundef @.str.10, ptr noundef @.str.11, i32 noundef 77, ptr noundef @__func__.DEVICE_CLASS)
  ret ptr %call
}

; Function Attrs: nounwind sspstrong uwtable
define internal void @erst_class_init(ptr noundef %klass, ptr noundef %data) #0 {
entry:
  %klass.addr = alloca ptr, align 8
  %data.addr = alloca ptr, align 8
  %dc = alloca ptr, align 8
  %k = alloca ptr, align 8
  store ptr %klass, ptr %klass.addr, align 8
  store ptr %data, ptr %data.addr, align 8
  %0 = load ptr, ptr %klass.addr, align 8
  %call = call ptr @DEVICE_CLASS(ptr noundef %0)
  store ptr %call, ptr %dc, align 8
  %1 = load ptr, ptr %klass.addr, align 8
  %call1 = call ptr @PCI_DEVICE_CLASS(ptr noundef %1)
  store ptr %call1, ptr %k, align 8
  call void @trace_acpi_erst_class_init_in()
  %2 = load ptr, ptr %k, align 8
  %realize = getelementptr inbounds %struct.PCIDeviceClass, ptr %2, i32 0, i32 1
  store ptr @erst_realizefn, ptr %realize, align 8
  %3 = load ptr, ptr %k, align 8
  %vendor_id = getelementptr inbounds %struct.PCIDeviceClass, ptr %3, i32 0, i32 5
  store i16 6966, ptr %vendor_id, align 8
  %4 = load ptr, ptr %k, align 8
  %device_id = getelementptr inbounds %struct.PCIDeviceClass, ptr %4, i32 0, i32 6
  store i16 18, ptr %device_id, align 2
  %5 = load ptr, ptr %k, align 8
  %revision = getelementptr inbounds %struct.PCIDeviceClass, ptr %5, i32 0, i32 7
  store i8 0, ptr %revision, align 4
  %6 = load ptr, ptr %k, align 8
  %class_id = getelementptr inbounds %struct.PCIDeviceClass, ptr %6, i32 0, i32 8
  store i16 255, ptr %class_id, align 2
  %7 = load ptr, ptr %dc, align 8
  %reset = getelementptr inbounds %struct.DeviceClass, ptr %7, i32 0, i32 7
  store ptr @erst_reset, ptr %reset, align 8
  %8 = load ptr, ptr %dc, align 8
  %vmsd = getelementptr inbounds %struct.DeviceClass, ptr %8, i32 0, i32 10
  store ptr @erst_vmstate, ptr %vmsd, align 8
  %9 = load ptr, ptr %dc, align 8
  %user_creatable = getelementptr inbounds %struct.DeviceClass, ptr %9, i32 0, i32 5
  store i8 1, ptr %user_creatable, align 8
  %10 = load ptr, ptr %dc, align 8
  %hotpluggable = getelementptr inbounds %struct.DeviceClass, ptr %10, i32 0, i32 6
  store i8 0, ptr %hotpluggable, align 1
  %11 = load ptr, ptr %dc, align 8
  call void @device_class_set_props(ptr noundef %11, ptr noundef @erst_properties)
  %12 = load ptr, ptr %dc, align 8
  %desc = getelementptr inbounds %struct.DeviceClass, ptr %12, i32 0, i32 3
  store ptr @.str.9, ptr %desc, align 8
  %13 = load ptr, ptr %dc, align 8
  %categories = getelementptr inbounds %struct.DeviceClass, ptr %13, i32 0, i32 1
  %arraydecay = getelementptr inbounds [1 x i64], ptr %categories, i64 0, i64 0
  call void @set_bit(i64 noundef 7, ptr noundef %arraydecay)
  call void @trace_acpi_erst_class_init_out()
  ret void
}