; Function Attrs: nounwind sspstrong uwtable
define internal void @erst_class_init(ptr noundef %klass, ptr readnone captures(none) %data) #0 {
entry:
  %_now.i.i13 = alloca %struct.timeval, align 8
  %_now.i.i = alloca %struct.timeval, align 8
  %call.i = tail call ptr @object_class_dynamic_cast_assert(ptr noundef %klass, ptr noundef nonnull @.str.10, ptr noundef nonnull @.str.11, i32 noundef 77, ptr noundef nonnull @__func__.DEVICE_CLASS) #10
  %call.i12 = tail call ptr @object_class_dynamic_cast_assert(ptr noundef %klass, ptr noundef nonnull @.str.3, ptr noundef nonnull @.str.4, i32 noundef 10, ptr noundef nonnull @__func__.PCI_DEVICE_CLASS) #10
  call void @llvm.lifetime.start.p0(i64 16, ptr nonnull %_now.i.i)
  %0 = load i32, ptr @trace_events_enabled_count, align 4
  %tobool.i.i = icmp ne i32 %0, 0
  %1 = load i16, ptr @_TRACE_ACPI_ERST_CLASS_INIT_IN_DSTATE, align 2
  %tobool4.i.i = icmp ne i16 %1, 0
  %or.cond.i.i = select i1 %tobool.i.i, i1 %tobool4.i.i, i1 false
  br i1 %or.cond.i.i, label %land.lhs.true5.i.i, label %trace_acpi_erst_class_init_in.exit

land.lhs.true5.i.i:                               ; preds = %entry
  %2 = load i32, ptr @qemu_loglevel, align 4
  %and.i.i.i = and i32 %2, 32768
  %cmp.i.not.i.i = icmp eq i32 %and.i.i.i, 0
  br i1 %cmp.i.not.i.i, label %trace_acpi_erst_class_init_in.exit, label %if.then.i.i

if.then.i.i:                                      ; preds = %land.lhs.true5.i.i
  %3 = load i8, ptr @message_with_timestamp, align 1
  %tobool7.i.i = trunc i8 %3 to i1
  br i1 %tobool7.i.i, label %if.then8.i.i, label %if.else.i.i

if.then8.i.i:                                     ; preds = %if.then.i.i
  %call9.i.i = call i32 @gettimeofday(ptr noundef nonnull %_now.i.i, ptr noundef null) #10
  %call10.i.i = tail call i32 @qemu_get_thread_id() #10
  %4 = load i64, ptr %_now.i.i, align 8
  %tv_usec.i.i = getelementptr inbounds nuw i8, ptr %_now.i.i, i64 8
  %5 = load i64, ptr %tv_usec.i.i, align 8
  tail call void (ptr, ...) @qemu_log(ptr noundef nonnull @.str.12, i32 noundef %call10.i.i, i64 noundef %4, i64 noundef %5) #10
  br label %trace_acpi_erst_class_init_in.exit

if.else.i.i:                                      ; preds = %if.then.i.i
  tail call void (ptr, ...) @qemu_log(ptr noundef nonnull @.str.13) #10
  br label %trace_acpi_erst_class_init_in.exit

trace_acpi_erst_class_init_in.exit:               ; preds = %entry, %land.lhs.true5.i.i, %if.then8.i.i, %if.else.i.i
  call void @llvm.lifetime.end.p0(i64 16, ptr nonnull %_now.i.i)
  %realize = getelementptr inbounds nuw i8, ptr %call.i12, i64 176
  store ptr @erst_realizefn, ptr %realize, align 8
  %vendor_id = getelementptr inbounds nuw i8, ptr %call.i12, i64 208
  store i16 6966, ptr %vendor_id, align 8
  %device_id = getelementptr inbounds nuw i8, ptr %call.i12, i64 210
  store i16 18, ptr %device_id, align 2
  %revision = getelementptr inbounds nuw i8, ptr %call.i12, i64 212
  store i8 0, ptr %revision, align 4
  %class_id = getelementptr inbounds nuw i8, ptr %call.i12, i64 214
  store i16 255, ptr %class_id, align 2
  %reset = getelementptr inbounds nuw i8, ptr %call.i, i64 136
  store ptr @erst_reset, ptr %reset, align 8
  %vmsd = getelementptr inbounds nuw i8, ptr %call.i, i64 160
  store ptr @erst_vmstate, ptr %vmsd, align 8
  %user_creatable = getelementptr inbounds nuw i8, ptr %call.i, i64 128
  store i8 1, ptr %user_creatable, align 8
  %hotpluggable = getelementptr inbounds nuw i8, ptr %call.i, i64 129
  store i8 0, ptr %hotpluggable, align 1
  tail call void @device_class_set_props(ptr noundef %call.i, ptr noundef nonnull @erst_properties) #10
  %desc = getelementptr inbounds nuw i8, ptr %call.i, i64 112
  store ptr @.str.9, ptr %desc, align 8
  %categories = getelementptr inbounds nuw i8, ptr %call.i, i64 96
  %6 = load i64, ptr %categories, align 8
  %or.i = or i64 %6, 128
  store i64 %or.i, ptr %categories, align 8
  call void @llvm.lifetime.start.p0(i64 16, ptr nonnull %_now.i.i13)
  %7 = load i32, ptr @trace_events_enabled_count, align 4
  %tobool.i.i14 = icmp ne i32 %7, 0
  %8 = load i16, ptr @_TRACE_ACPI_ERST_CLASS_INIT_OUT_DSTATE, align 2
  %tobool4.i.i15 = icmp ne i16 %8, 0
  %or.cond.i.i16 = select i1 %tobool.i.i14, i1 %tobool4.i.i15, i1 false
  br i1 %or.cond.i.i16, label %land.lhs.true5.i.i17, label %trace_acpi_erst_class_init_out.exit

land.lhs.true5.i.i17:                             ; preds = %trace_acpi_erst_class_init_in.exit
  %9 = load i32, ptr @qemu_loglevel, align 4
  %and.i.i.i18 = and i32 %9, 32768
  %cmp.i.not.i.i19 = icmp eq i32 %and.i.i.i18, 0
  br i1 %cmp.i.not.i.i19, label %trace_acpi_erst_class_init_out.exit, label %if.then.i.i20

if.then.i.i20:                                    ; preds = %land.lhs.true5.i.i17
  %10 = load i8, ptr @message_with_timestamp, align 1
  %tobool7.i.i21 = trunc i8 %10 to i1
  br i1 %tobool7.i.i21, label %if.then8.i.i23, label %if.else.i.i22

if.then8.i.i23:                                   ; preds = %if.then.i.i20
  %call9.i.i24 = call i32 @gettimeofday(ptr noundef nonnull %_now.i.i13, ptr noundef null) #10
  %call10.i.i25 = tail call i32 @qemu_get_thread_id() #10
  %11 = load i64, ptr %_now.i.i13, align 8
  %tv_usec.i.i26 = getelementptr inbounds nuw i8, ptr %_now.i.i13, i64 8
  %12 = load i64, ptr %tv_usec.i.i26, align 8
  tail call void (ptr, ...) @qemu_log(ptr noundef nonnull @.str.49, i32 noundef %call10.i.i25, i64 noundef %11, i64 noundef %12) #10
  br label %trace_acpi_erst_class_init_out.exit

if.else.i.i22:                                    ; preds = %if.then.i.i20
  tail call void (ptr, ...) @qemu_log(ptr noundef nonnull @.str.50) #10
  br label %trace_acpi_erst_class_init_out.exit

trace_acpi_erst_class_init_out.exit:              ; preds = %trace_acpi_erst_class_init_in.exit, %land.lhs.true5.i.i17, %if.then8.i.i23, %if.else.i.i22
  call void @llvm.lifetime.end.p0(i64 16, ptr nonnull %_now.i.i13)
  ret void
}